(lp0
I6
aI2
aI2
aI14
a(lp1
I3
aI2
aI4
aI1
aI2
aI1
a(lp2
I1
aI2
aI3
aI4
aI5
aa(lp3
I0
aI3
aI4
aI5
aaI5
aI0
aI0
aI5
aI4
aI3
aa(lp4
(lp5
I7
aI9
aI10
aa(lp6
I3
aI5
aI6
aa(lp7
I1
aI4
aI6
aa(lp8
I0
aI6
aI7
aI13
aa(lp9
I2
aI6
aI7
aI12
aa(lp10
I6
aI7
aI8
aI11
aaa(lp11
I6
aI7
aa(lp12
I3
aI3
aI3
aI4
aI4
aI4
aa(lp13
I32
aI32
aI32
aI32
aI32
aI32
aa(lp14
(lp15
I32
aI32
aI32
aa(lp16
I16
aI16
aI16
aa(lp17
I16
aI16
aI16
aa(lp18
I32
aI32
aI32
aI32
aa(lp19
I32
aI32
aI32
aI32
aa(lp20
I16
aI16
aI16
aI16
aaa(lp21
(lp22
(lp23
I32
aI32
aI32
aag23
ag23
aa(lp24
(lp25
I16
aI16
aI16
aag25
ag25
aa(lp26
(lp27
I16
aI16
aI16
aag27
ag27
aa(lp28
(lp29
I32
aI32
aI32
aI32
aag29
ag29
ag29
aa(lp30
(lp31
I32
aI32
aI32
aI32
aag31
ag31
ag31
aa(lp32
(lp33
I16
aI16
aI16
aI16
aag33
ag33
ag33
aaa(lp34
(lp35
I9
aI6
aI7
aa(lp36
I7
aI9
aI8
aa(lp37
I7
aI10
aI6
aa(lp38
I5
aI9
aI6
aI10
aa(lp39
I10
aI8
aI9
aI10
aa(lp40
I7
aI5
aI9
aI8
aaa(lp41
I11
aI12
aaF5.0
aF12.0
a.