(lp0
I6
aI2
aI2
aI14
a(lp1
I5
aI2
aI5
aI3
aI1
aI4
aI0
a(lp2
I1
aI2
aI3
aI5
aaI4
aI2
aI1
aI0
a(lp3
I0
aI1
aI2
aI3
aI4
aI5
aaI3
aa(lp4
(lp5
I6
aI11
aI12
aa(lp6
I4
aI7
aI10
aI12
aa(lp7
I1
aI7
aI9
aI12
aa(lp8
I3
aI7
aI12
aI13
aa(lp9
I5
aI8
aI12
aa(lp10
I0
aI2
aI7
aI12
aaa(lp11
I7
aI12
aa(lp12
I3
aI4
aI4
aI4
aI3
aI4
aa(lp13
I16
aI16
aI16
aI16
aI16
aI16
aa(lp14
(lp15
I8
aI8
aI8
aa(lp16
I16
aI16
aI16
aI16
aa(lp17
I8
aI8
aI8
aI8
aa(lp18
I16
aI16
aI16
aI16
aa(lp19
I8
aI8
aI8
aa(lp20
I16
aI16
aI16
aI16
aaa(lp21
(lp22
(lp23
I8
aI8
aI8
aag23
ag23
aa(lp24
(lp25
I16
aI16
aI16
aI16
aag25
ag25
ag25
aa(lp26
(lp27
I8
aI8
aI8
aI8
aag27
ag27
ag27
aa(lp28
(lp29
I16
aI16
aI16
aI16
aag29
ag29
ag29
aa(lp30
(lp31
I8
aI8
aI8
aag31
ag31
aa(lp32
(lp33
I16
aI16
aI16
aI16
aag33
ag33
ag33
aaa(lp34
(lp35
I5
aI5
aI7
aa(lp36
I8
aI9
aI5
aI7
aa(lp37
I5
aI9
aI8
aI7
aa(lp38
I6
aI5
aI6
aI8
aa(lp39
I5
aI5
aI10
aa(lp40
I9
aI7
aI7
aI9
aaa(lp41
I14
aI12
aaF5.0
aF14.0
a.