(lp0
I6
aI2
aI2
aI14
a(lp1
(lp2
I0
aI1
aI2
aI4
aI5
aaI5
aI0
aI2
aI0
aI5
aI2
aI4
aI1
aI4
aI3
aI3
a(lp3
I0
aI1
aI3
aI4
aI5
aaI1
aa(lp4
(lp5
I0
aI2
aI4
aI12
aa(lp6
I0
aI8
aI12
aI13
aa(lp7
I0
aI3
aI6
aa(lp8
I10
aI11
aI12
aa(lp9
I0
aI7
aI9
aI12
aa(lp10
I0
aI1
aI5
aI12
aaa(lp11
I0
aI12
aa(lp12
I4
aI4
aI3
aI3
aI4
aI4
aa(lp13
I32
aI32
aI32
aI32
aI32
aI32
aa(lp14
(lp15
I32
aI32
aI32
aI32
aa(lp16
I32
aI32
aI32
aI32
aa(lp17
I16
aI16
aI16
aa(lp18
I32
aI32
aI32
aa(lp19
I32
aI32
aI32
aI32
aa(lp20
I16
aI16
aI16
aI16
aaa(lp21
(lp22
(lp23
I32
aI32
aI32
aI32
aag23
ag23
ag23
aa(lp24
(lp25
I32
aI32
aI32
aI32
aag25
ag25
ag25
aa(lp26
(lp27
I16
aI16
aI16
aag27
ag27
aa(lp28
(lp29
I32
aI32
aI32
aag29
ag29
aa(lp30
(lp31
I32
aI32
aI32
aI32
aag31
ag31
ag31
aa(lp32
(lp33
I16
aI16
aI16
aI16
aag33
ag33
ag33
aaa(lp34
(lp35
I8
aI8
aI6
aI9
aa(lp36
I8
aI9
aI5
aI8
aa(lp37
I8
aI7
aI6
aa(lp38
I6
aI10
aI7
aa(lp39
I6
aI7
aI10
aI8
aa(lp40
I9
aI8
aI8
aI10
aaa(lp41
I12
aI10
aaF5.0
aF12.0
a.