(lp0
I3
aI2
aI2
aI8
a(lp1
I1
a(lp2
I0
aI1
aaI2
a(lp3
I0
aI1
aI2
aaI1
aI0
aI0
aI2
aa(lp4
(lp5
I1
aI3
aI5
aI6
aa(lp6
I0
aI1
aI3
aI4
aa(lp7
I2
aI3
aI7
aaa(lp8
I1
aI3
aa(lp9
I4
aI4
aI3
aa(lp10
I16
aI16
aI16
aa(lp11
(lp12
I16
aI16
aI16
aI16
aa(lp13
I16
aI16
aI16
aI16
aa(lp14
I16
aI16
aI16
aaa(lp15
(lp16
(lp17
I16
aI16
aI16
aI16
aag17
ag17
ag17
aa(lp18
(lp19
I16
aI16
aI16
aI16
aag19
ag19
ag19
aa(lp20
(lp21
I16
aI16
aI16
aag21
ag21
aaa(lp22
(lp23
I6
aI9
aI9
aI8
aa(lp24
I10
aI7
aI8
aI9
aa(lp25
I7
aI9
aI9
aaa(lp26
I12
aI11
aaF6.0
aF12.0
aF1e-05
aF0.8
aF0.001
aF0.8
aF1e-06
a.