(lp0
I3
aI2
aI2
aI8
a(lp1
I0
aI0
a(lp2
I0
aI1
aI2
aa(lp3
I1
aI2
aaI2
aI1
aI2
aI1
aa(lp4
(lp5
I0
aI1
aI2
aa(lp6
I2
aI3
aI5
aI7
aa(lp7
I2
aI3
aI4
aI6
aaa(lp8
I2
aI3
aa(lp9
I3
aI4
aI4
aa(lp10
I64
aI64
aI64
aa(lp11
(lp12
I64
aI64
aI64
aa(lp13
I64
aI64
aI64
aI64
aa(lp14
I64
aI64
aI64
aI64
aaa(lp15
(lp16
(lp17
I64
aI64
aI64
aag17
ag17
aa(lp18
(lp19
I64
aI64
aI64
aI64
aag19
ag19
ag19
aa(lp20
(lp21
I64
aI64
aI64
aI64
aag21
ag21
ag21
aaa(lp22
(lp23
I7
aI8
aI5
aa(lp24
I5
aI8
aI8
aI7
aa(lp25
I7
aI7
aI10
aI10
aaa(lp26
I10
aI11
aaF5.0
aF11.0
aF1e-05
aF0.8
aF0.001
aF0.8
aF1e-06
a.